; Function Attrs: nounwind uwtable
define internal range(i32 -1, 1) i32 @H5G__close_cb(ptr noundef %0, ptr noundef %1) #0 {
  %3 = load i64, ptr @H5P_LST_DATASET_XFER_ID_g, align 8
  %4 = tail call i32 @H5VL_group_close(ptr noundef %0, i64 noundef %3, ptr noundef %1) #10
  %5 = icmp slt i32 %4, 0
  br i1 %5, label %6, label %10

6:                                                ; preds = %2
  %7 = load i64, ptr @H5E_SYM_g, align 8
  %8 = load i64, ptr @H5E_CLOSEERROR_g, align 8
  %9 = tail call i32 (ptr, ptr, i32, i64, i64, ptr, ...) @H5E_printf_stack(ptr noundef nonnull @.str.3, ptr noundef nonnull @__func__.H5G__close_cb, i32 noundef 216, i64 noundef %7, i64 noundef %8, ptr noundef nonnull @.str.36) #10
  br label %17

10:                                               ; preds = %2
  %11 = tail call i32 @H5VL_free_object(ptr noundef %0) #10
  %12 = icmp slt i32 %11, 0
  br i1 %12, label %13, label %17

13:                                               ; preds = %10
  %14 = load i64, ptr @H5E_SYM_g, align 8
  %15 = load i64, ptr @H5E_CANTDEC_g, align 8
  %16 = tail call i32 (ptr, ptr, i32, i64, i64, ptr, ...) @H5E_printf_stack(ptr noundef nonnull @.str.3, ptr noundef nonnull @__func__.H5G__close_cb, i32 noundef 220, i64 noundef %14, i64 noundef %15, ptr noundef nonnull @.str.62) #10
  br label %17

17:                                               ; preds = %10, %13, %6
  %.0 = phi i32 [ -1, %6 ], [ -1, %13 ], [ 0, %10 ]
  ret i32 %.0
}